target datalayout = "e-m:e-p270:32:32-p271:32:32-p272:64:64-i64:64-i128:128-f80:128-n8:16:32:64-S128"
target triple = "x86_64-unknown-linux-gnu"

%struct.VMStateDescription = type { ptr, i8, i8, i32, i32, i32, ptr, ptr, ptr, ptr, ptr, ptr, ptr, ptr }
%struct.ObjectClass = type { ptr, ptr, [4 x ptr], [4 x ptr], ptr, ptr }
%struct.DeviceClass = type { %struct.ObjectClass, [1 x i64], ptr, ptr, ptr, i8, i8, ptr, ptr, ptr, ptr, ptr }

@.str.65 = private unnamed_addr constant [105 x i8] c"/home/dtcxzyw/WorkSpace/Projects/compilers/llvm-opt-benchmark/bench/qemu/qemu/include/hw/virtio/virtio.h\00", align 1
@.str.93 = private unnamed_addr constant [14 x i8] c"virtio-device\00", align 1
@__func__.VIRTIO_DEVICE_GET_CLASS = private unnamed_addr constant [24 x i8] c"VIRTIO_DEVICE_GET_CLASS\00", align 1
@.str.96 = private unnamed_addr constant [7 x i8] c"device\00", align 1
@.str.97 = private unnamed_addr constant [101 x i8] c"/home/dtcxzyw/WorkSpace/Projects/compilers/llvm-opt-benchmark/bench/qemu/qemu/include/hw/qdev-core.h\00", align 1
@__func__.VIRTIO_DEVICE = private unnamed_addr constant [14 x i8] c"VIRTIO_DEVICE\00", align 1
@__func__.DEVICE_CLASS = private unnamed_addr constant [13 x i8] c"DEVICE_CLASS\00", align 1

; Function Attrs: nounwind sspstrong uwtable
define internal ptr @DEVICE_CLASS(ptr noundef %klass) #0 {
entry:
  %klass.addr = alloca ptr, align 8
  store ptr %klass, ptr %klass.addr, align 8
  %0 = load ptr, ptr %klass.addr, align 8
  %call = call ptr @object_class_dynamic_cast_assert(ptr noundef %0, ptr noundef @.str.96, ptr noundef @.str.97, i32 noundef 77, ptr noundef @__func__.DEVICE_CLASS)
  ret ptr %call
}

; Function Attrs: nounwind sspstrong uwtable
define internal ptr @VIRTIO_DEVICE_GET_CLASS(ptr noundef %obj) #0 {
entry:
  %obj.addr = alloca ptr, align 8
  store ptr %obj, ptr %obj.addr, align 8
  %0 = load ptr, ptr %obj.addr, align 8
  %call = call ptr @object_get_class(ptr noundef %0)
  %call1 = call ptr @object_class_dynamic_cast_assert(ptr noundef %call, ptr noundef @.str.93, ptr noundef @.str.65, i32 noundef 85, ptr noundef @__func__.VIRTIO_DEVICE_GET_CLASS)
  ret ptr %call1
}

; Function Attrs: nounwind sspstrong uwtable
define internal ptr @VIRTIO_DEVICE(ptr noundef %obj) #0 {
entry:
  %obj.addr = alloca ptr, align 8
  store ptr %obj, ptr %obj.addr, align 8
  %0 = load ptr, ptr %obj.addr, align 8
  %call = call ptr @object_dynamic_cast_assert(ptr noundef %0, ptr noundef @.str.93, ptr noundef @.str.65, i32 noundef 85, ptr noundef @__func__.VIRTIO_DEVICE)
  ret ptr %call
}

; Function Attrs: nounwind sspstrong uwtable
define internal i32 @virtio_device_get(ptr noundef %f, ptr noundef %opaque, i64 noundef %size, ptr noundef %field) #0 {
entry:
  %f.addr = alloca ptr, align 8
  %opaque.addr = alloca ptr, align 8
  %size.addr = alloca i64, align 8
  %field.addr = alloca ptr, align 8
  %vdev = alloca ptr, align 8
  %dc = alloca ptr, align 8
  store ptr %f, ptr %f.addr, align 8
  store ptr %opaque, ptr %opaque.addr, align 8
  store i64 %size, ptr %size.addr, align 8
  store ptr %field, ptr %field.addr, align 8
  %0 = load ptr, ptr %opaque.addr, align 8
  %call = call ptr @VIRTIO_DEVICE(ptr noundef %0)
  store ptr %call, ptr %vdev, align 8
  %1 = load ptr, ptr %vdev, align 8
  %call1 = call ptr @VIRTIO_DEVICE_GET_CLASS(ptr noundef %1)
  %call2 = call ptr @DEVICE_CLASS(ptr noundef %call1)
  store ptr %call2, ptr %dc, align 8
  %2 = load ptr, ptr %vdev, align 8
  %3 = load ptr, ptr %f.addr, align 8
  %4 = load ptr, ptr %dc, align 8
  %vmsd = getelementptr inbounds %struct.DeviceClass, ptr %4, i32 0, i32 10
  %5 = load ptr, ptr %vmsd, align 8
  %version_id = getelementptr inbounds %struct.VMStateDescription, ptr %5, i32 0, i32 3
  %6 = load i32, ptr %version_id, align 4
  %call3 = call i32 @virtio_load(ptr noundef %2, ptr noundef %3, i32 noundef %6)
  ret i32 %call3
}