; Function Attrs: nounwind sspstrong uwtable
define internal i32 @virtio_device_get(ptr noundef %f, ptr noundef %opaque, i64 %size, ptr readnone captures(none) %field) #0 {
entry:
  %call.i = tail call ptr @object_dynamic_cast_assert(ptr noundef %opaque, ptr noundef nonnull @.str.93, ptr noundef nonnull @.str.65, i32 noundef 85, ptr noundef nonnull @__func__.VIRTIO_DEVICE) #23
  %call.i2 = tail call ptr @object_get_class(ptr noundef %call.i) #23
  %call1.i = tail call ptr @object_class_dynamic_cast_assert(ptr noundef %call.i2, ptr noundef nonnull @.str.93, ptr noundef nonnull @.str.65, i32 noundef 85, ptr noundef nonnull @__func__.VIRTIO_DEVICE_GET_CLASS) #23
  %call.i3 = tail call ptr @object_class_dynamic_cast_assert(ptr noundef %call1.i, ptr noundef nonnull @.str.96, ptr noundef nonnull @.str.97, i32 noundef 77, ptr noundef nonnull @__func__.DEVICE_CLASS) #23
  %vmsd = getelementptr inbounds nuw i8, ptr %call.i3, i64 160
  %0 = load ptr, ptr %vmsd, align 8
  %version_id = getelementptr inbounds nuw i8, ptr %0, i64 12
  %1 = load i32, ptr %version_id, align 4
  %call3 = tail call i32 @virtio_load(ptr noundef %call.i, ptr noundef %f, i32 noundef %1)
  ret i32 %call3
}